; Function Attrs: mustprogress uwtable
define void @_ZN4base11CommandLine15AppendArgumentsERKS0_b(ptr noundef nonnull align 8 dereferenceable(128) %0, ptr noundef nonnull readonly align 8 captures(none) dereferenceable(128) %1, i1 noundef zeroext %2) local_unnamed_addr #0 align 2 personality ptr @__gxx_personality_v0 {
  %4 = alloca %"class.base::FilePath", align 8
  br i1 %2, label %5, label %14

5:                                                ; preds = %3
  call void @llvm.lifetime.start.p0(i64 32, ptr nonnull %4) #21
  %6 = load ptr, ptr %1, align 8, !tbaa !3, !noalias !85
  %7 = load ptr, ptr %6, align 8, !tbaa !42, !noalias !85
  %8 = getelementptr inbounds nuw i8, ptr %6, i64 8
  %9 = load i64, ptr %8, align 8, !tbaa !13, !noalias !85
  call void @_ZN4base8FilePathC1ENS_16BasicStringPieceINSt7__cxx1112basic_stringIcSt11char_traitsIcESaIcEEEEE(ptr noundef nonnull align 8 dereferenceable(32) %4, ptr %7, i64 %9)
  %10 = load ptr, ptr %0, align 8, !tbaa !3
  %11 = invoke noundef i32 @_ZN4base19TrimWhitespaceASCIIERKNSt7__cxx1112basic_stringIcSt11char_traitsIcESaIcEEENS_13TrimPositionsEPS5_(ptr noundef nonnull align 8 dereferenceable(32) %4, i32 noundef 3, ptr noundef nonnull %10)
          to label %_ZN4base11CommandLine10SetProgramERKNS_8FilePathE.exit unwind label %12

_ZN4base11CommandLine10SetProgramERKNS_8FilePathE.exit: ; preds = %5
  call void @_ZN4base8FilePathD1Ev(ptr noundef nonnull align 8 dereferenceable(32) %4) #21
  call void @llvm.lifetime.end.p0(i64 32, ptr nonnull %4) #21
  br label %14

12:                                               ; preds = %5
  %13 = landingpad { ptr, i32 }
          cleanup
  call void @_ZN4base8FilePathD1Ev(ptr noundef nonnull align 8 dereferenceable(32) %4) #21
  call void @llvm.lifetime.end.p0(i64 32, ptr nonnull %4) #21
  resume { ptr, i32 } %13

14:                                               ; preds = %_ZN4base11CommandLine10SetProgramERKNS_8FilePathE.exit, %3
  call fastcc void @_ZN4base12_GLOBAL__N_126AppendSwitchesAndArgumentsEPNS_11CommandLineERKSt6vectorINSt7__cxx1112basic_stringIcSt11char_traitsIcESaIcEEESaIS9_EE(ptr noundef %0, ptr noundef nonnull align 8 dereferenceable(24) %1)
  ret void
}